; Function Attrs: mustprogress nofree norecurse nosync nounwind willreturn memory(argmem: read) uwtable
define internal noundef zeroext i1 @_ZNK4absl18container_internal12_GLOBAL__N_119IsSameSliceMatcherPINS_4SpanIaEEE10gmock_ImplIRKS4_E15MatchAndExplainES8_PN7testing19MatchResultListenerE(ptr nocapture noundef nonnull readonly align 8 dereferenceable(24) %this, ptr nocapture noundef nonnull readonly align 8 dereferenceable(16) %arg, ptr nocapture readnone %result_listener) unnamed_addr #14 align 2 {
entry:
  %len_.i = getelementptr inbounds i8, ptr %arg, i64 8
  %0 = load i64, ptr %len_.i, align 8
  %slice = getelementptr inbounds i8, ptr %this, i64 8
  %len_.i2 = getelementptr inbounds i8, ptr %this, i64 16
  %1 = load i64, ptr %len_.i2, align 8
  %cmp = icmp eq i64 %0, %1
  %2 = load ptr, ptr %arg, align 8
  %3 = load ptr, ptr %slice, align 8
  %cmp6 = icmp eq ptr %2, %3
  %4 = select i1 %cmp, i1 %cmp6, i1 false
  ret i1 %4
}